; Function Attrs: mustprogress uwtable
define void @_ZN3gmx25AnalysisDataModuleManagerC2Ev(ptr noundef nonnull writeonly align 8 captures(none) dereferenceable(8) %0) unnamed_addr #2 align 2 personality ptr @__gxx_personality_v0 {
  %2 = tail call noalias noundef nonnull dereferenceable(40) ptr @_Znwm(i64 noundef 40) #22
  invoke void @_ZN3gmx25AnalysisDataModuleManager4ImplC1Ev(ptr noundef nonnull align 8 dereferenceable(40) %2)
          to label %3 unwind label %4

3:                                                ; preds = %1
  store ptr %2, ptr %0, align 8, !tbaa !71
  ret void

4:                                                ; preds = %1
  %5 = landingpad { ptr, i32 }
          cleanup
  tail call void @_ZdlPvm(ptr noundef nonnull %2, i64 noundef 40) #23
  resume { ptr, i32 } %5
}